; Function Attrs: mustprogress nounwind uwtable
define dso_local void @_ZN5clang5arcmt16TransformActions19increaseIndentationENS_11SourceRangeENS_14SourceLocationE(ptr noundef nonnull readonly align 8 captures(none) dereferenceable(24) %0, i64 %1, i32 %2) local_unnamed_addr #3 align 2 {
  %4 = alloca %"struct.(anonymous namespace)::TransformActionsImpl::ActionData", align 8
  %5 = getelementptr inbounds nuw i8, ptr %0, i64 16
  %6 = load ptr, ptr %5, align 8
  call void @llvm.lifetime.start.p0(i64 88, ptr nonnull %4)
  %7 = and i64 %1, 4294967295
  %8 = icmp eq i64 %7, 0
  %9 = icmp ult i64 %1, 4294967296
  %.not2.i.i = or i1 %9, %8
  br i1 %.not2.i.i, label %_ZN12_GLOBAL__N_120TransformActionsImpl19increaseIndentationEN5clang11SourceRangeENS1_14SourceLocationE.exit, label %10

10:                                               ; preds = %3
  %11 = getelementptr inbounds nuw i8, ptr %4, i64 4
  %12 = getelementptr inbounds nuw i8, ptr %4, i64 64
  %13 = getelementptr inbounds nuw i8, ptr %4, i64 80
  call void @llvm.memset.p0.i64(ptr noundef nonnull align 4 dereferenceable(52) %11, i8 0, i64 52, i1 false)
  call void @_ZN4llvm15SmallVectorBaseIjEC2EPvm(ptr noundef nonnull align 8 dereferenceable(24) %12, ptr noundef nonnull %13, i64 noundef 2) #21
  store i32 6, ptr %4, align 8
  %14 = getelementptr inbounds nuw i8, ptr %4, i64 8
  store i64 %1, ptr %14, align 8
  store i32 %2, ptr %11, align 4
  %15 = getelementptr inbounds nuw i8, ptr %6, i64 32
  call fastcc void @_ZNSt6vectorIN12_GLOBAL__N_120TransformActionsImpl10ActionDataESaIS2_EE9push_backERKS2_(ptr noundef nonnull align 8 dereferenceable(24) %15, ptr noundef nonnull align 8 dereferenceable(88) %4)
  %16 = call noundef i64 @_ZNK4llvm15SmallVectorBaseIjE4sizeEv(ptr noundef nonnull align 8 dereferenceable(24) %12) #21
  %17 = load ptr, ptr %12, align 8
  %18 = icmp eq ptr %17, %13
  br i1 %18, label %_ZN12_GLOBAL__N_120TransformActionsImpl19increaseIndentationEN5clang11SourceRangeENS1_14SourceLocationE.exit, label %19

19:                                               ; preds = %10
  call void @free(ptr noundef %17) #21
  br label %_ZN12_GLOBAL__N_120TransformActionsImpl19increaseIndentationEN5clang11SourceRangeENS1_14SourceLocationE.exit

_ZN12_GLOBAL__N_120TransformActionsImpl19increaseIndentationEN5clang11SourceRangeENS1_14SourceLocationE.exit: ; preds = %3, %10, %19
  call void @llvm.lifetime.end.p0(i64 88, ptr nonnull %4)
  ret void
}